; Function Attrs: mustprogress nofree norecurse nounwind willreturn uwtable
define void @_ZN32pxrInternal_v0_24__pxrReserved__27HdContainerDataSourceEditor24_NodeContainerDataSourceC2ESt10shared_ptrINS0_5_NodeEE(ptr nocapture noundef nonnull writeonly align 8 dereferenceable(24) %0, ptr nocapture noundef readonly %1) unnamed_addr #6 align 2 personality ptr @__gxx_personality_v0 {
  store ptr getelementptr inbounds inrange(-16, 32) (i8, ptr @_ZTVN32pxrInternal_v0_24__pxrReserved__27HdContainerDataSourceEditor24_NodeContainerDataSourceE, i64 16), ptr %0, align 8
  %3 = getelementptr inbounds nuw i8, ptr %0, i64 8
  %4 = load ptr, ptr %1, align 8
  store ptr %4, ptr %3, align 8
  %5 = getelementptr inbounds i8, ptr %0, i64 16
  %6 = getelementptr inbounds nuw i8, ptr %1, i64 8
  %7 = load ptr, ptr %6, align 8
  store ptr %7, ptr %5, align 8
  %.not.i.i.i = icmp eq ptr %7, null
  br i1 %.not.i.i.i, label %_ZNSt10shared_ptrIN32pxrInternal_v0_24__pxrReserved__27HdContainerDataSourceEditor5_NodeEEC2ERKS3_.exit, label %8

8:                                                ; preds = %2
  %9 = getelementptr inbounds nuw i8, ptr %7, i64 8
  %10 = load i8, ptr @__libc_single_threaded, align 1
  %.not.i.i.i.i = icmp eq i8 %10, 0
  br i1 %.not.i.i.i.i, label %14, label %11

11:                                               ; preds = %8
  %12 = load i32, ptr %9, align 4
  %13 = add nsw i32 %12, 1
  store i32 %13, ptr %9, align 4
  br label %_ZNSt10shared_ptrIN32pxrInternal_v0_24__pxrReserved__27HdContainerDataSourceEditor5_NodeEEC2ERKS3_.exit

14:                                               ; preds = %8
  %15 = atomicrmw volatile add ptr %9, i32 1 acq_rel, align 4
  br label %_ZNSt10shared_ptrIN32pxrInternal_v0_24__pxrReserved__27HdContainerDataSourceEditor5_NodeEEC2ERKS3_.exit

_ZNSt10shared_ptrIN32pxrInternal_v0_24__pxrReserved__27HdContainerDataSourceEditor5_NodeEEC2ERKS3_.exit: ; preds = %2, %11, %14
  ret void
}